; Function Attrs: mustprogress nounwind uwtable
define hidden void @_ZN31G1CollectionCandidateRegionListC2Ev(ptr nocapture noundef nonnull writeonly align 8 dereferenceable(24) %0) unnamed_addr #0 align 2 {
  %2 = tail call noundef ptr @_ZN27GrowableArrayCHeapAllocator8allocateEii8MEMFLAGS(i32 noundef 2, i32 noundef 8, i8 noundef zeroext 5) #17
  store i32 0, ptr %0, align 8
  %3 = getelementptr inbounds i8, ptr %0, i64 4
  store i32 2, ptr %3, align 4
  %4 = getelementptr inbounds i8, ptr %0, i64 8
  store ptr %2, ptr %4, align 8
  tail call void @llvm.memset.p0.i64(ptr noundef nonnull align 8 dereferenceable(16) %2, i8 0, i64 16, i1 false)
  %5 = getelementptr inbounds i8, ptr %0, i64 16
  store i64 11, ptr %5, align 8
  ret void
}